; Function Attrs: nounwind uwtable
define dso_local void @PyMutex_Unlock(ptr noundef %0) local_unnamed_addr #0 {
  %2 = load atomic i8, ptr %0 seq_cst, align 1
  %3 = zext i8 %2 to i32
  %4 = and i32 %3, 1
  %5 = icmp eq i32 %4, 0
  br i1 %5, label %.loopexit, label %.lr.ph.i

.lr.ph.i:                                         ; preds = %1, %_Py_atomic_compare_exchange_uint8.exit.i
  %6 = phi i32 [ %13, %_Py_atomic_compare_exchange_uint8.exit.i ], [ %3, %1 ]
  %.069.i = phi i8 [ %12, %_Py_atomic_compare_exchange_uint8.exit.i ], [ %2, %1 ]
  %7 = and i32 %6, 2
  %.not.i = icmp eq i32 %7, 0
  br i1 %.not.i, label %9, label %8

8:                                                ; preds = %.lr.ph.i
  tail call void @_PyParkingLot_Unpark(ptr noundef nonnull %0, ptr noundef nonnull @mutex_unpark, ptr noundef nonnull %0) #8
  br label %_PyMutex_TryUnlock.exit

9:                                                ; preds = %.lr.ph.i
  %10 = cmpxchg ptr %0, i8 %.069.i, i8 0 seq_cst seq_cst, align 1
  %11 = extractvalue { i8, i1 } %10, 1
  br i1 %11, label %_PyMutex_TryUnlock.exit, label %_Py_atomic_compare_exchange_uint8.exit.i

_Py_atomic_compare_exchange_uint8.exit.i:         ; preds = %9
  %12 = extractvalue { i8, i1 } %10, 0
  %13 = zext i8 %12 to i32
  %14 = and i32 %13, 1
  %15 = icmp eq i32 %14, 0
  br i1 %15, label %.loopexit, label %.lr.ph.i

.loopexit:                                        ; preds = %_Py_atomic_compare_exchange_uint8.exit.i, %1
  tail call void @_Py_FatalErrorFunc(ptr noundef nonnull @__func__.PyMutex_Unlock, ptr noundef nonnull @.str) #9
  unreachable

_PyMutex_TryUnlock.exit:                          ; preds = %9, %8
  ret void
}